target datalayout = "e-m:e-p270:32:32-p271:32:32-p272:64:64-i64:64-i128:128-f80:128-n8:16:32:64-S128"
target triple = "x86_64-pc-linux-gnu"

@.str = private unnamed_addr constant [11 x i8] c"SC mapping\00", align 1
@.str.1 = private unnamed_addr constant [12 x i8] c"read_genlib\00", align 1
@.str.2 = private unnamed_addr constant [13 x i8] c"write_genlib\00", align 1
@.str.3 = private unnamed_addr constant [13 x i8] c"print_genlib\00", align 1
@.str.4 = private unnamed_addr constant [13 x i8] c"read_profile\00", align 1
@.str.5 = private unnamed_addr constant [14 x i8] c"write_profile\00", align 1
@.str.6 = private unnamed_addr constant [14 x i8] c"print_profile\00", align 1
@.str.7 = private unnamed_addr constant [13 x i8] c"read_library\00", align 1
@.str.8 = private unnamed_addr constant [14 x i8] c"write_library\00", align 1
@.str.9 = private unnamed_addr constant [14 x i8] c"print_library\00", align 1

; Function Attrs: nounwind uwtable
define void @Mio_Init(ptr noundef %0) #0 {
  %2 = alloca ptr, align 8
  store ptr %0, ptr %2, align 8
  %3 = load ptr, ptr %2, align 8
  call void @Cmd_CommandAdd(ptr noundef %3, ptr noundef @.str, ptr noundef @.str.1, ptr noundef @Mio_CommandReadGenlib, i32 noundef 0)
  %4 = load ptr, ptr %2, align 8
  call void @Cmd_CommandAdd(ptr noundef %4, ptr noundef @.str, ptr noundef @.str.2, ptr noundef @Mio_CommandWriteGenlib, i32 noundef 0)
  %5 = load ptr, ptr %2, align 8
  call void @Cmd_CommandAdd(ptr noundef %5, ptr noundef @.str, ptr noundef @.str.3, ptr noundef @Mio_CommandPrintGenlib, i32 noundef 0)
  %6 = load ptr, ptr %2, align 8
  call void @Cmd_CommandAdd(ptr noundef %6, ptr noundef @.str, ptr noundef @.str.4, ptr noundef @Mio_CommandReadProfile, i32 noundef 0)
  %7 = load ptr, ptr %2, align 8
  call void @Cmd_CommandAdd(ptr noundef %7, ptr noundef @.str, ptr noundef @.str.5, ptr noundef @Mio_CommandWriteProfile, i32 noundef 0)
  %8 = load ptr, ptr %2, align 8
  call void @Cmd_CommandAdd(ptr noundef %8, ptr noundef @.str, ptr noundef @.str.6, ptr noundef @Mio_CommandPrintProfile, i32 noundef 0)
  %9 = load ptr, ptr %2, align 8
  call void @Cmd_CommandAdd(ptr noundef %9, ptr noundef @.str, ptr noundef @.str.7, ptr noundef @Mio_CommandReadGenlib, i32 noundef 0)
  %10 = load ptr, ptr %2, align 8
  call void @Cmd_CommandAdd(ptr noundef %10, ptr noundef @.str, ptr noundef @.str.8, ptr noundef @Mio_CommandWriteGenlib, i32 noundef 0)
  %11 = load ptr, ptr %2, align 8
  call void @Cmd_CommandAdd(ptr noundef %11, ptr noundef @.str, ptr noundef @.str.9, ptr noundef @Mio_CommandPrintGenlib, i32 noundef 0)
  ret void
}