; Function Attrs: nounwind uwtable
define void @Mio_Init(ptr noundef %0) local_unnamed_addr #0 {
  tail call void @Cmd_CommandAdd(ptr noundef %0, ptr noundef nonnull @.str, ptr noundef nonnull @.str.1, ptr noundef nonnull @Mio_CommandReadGenlib, i32 noundef 0) #8
  tail call void @Cmd_CommandAdd(ptr noundef %0, ptr noundef nonnull @.str, ptr noundef nonnull @.str.2, ptr noundef nonnull @Mio_CommandWriteGenlib, i32 noundef 0) #8
  tail call void @Cmd_CommandAdd(ptr noundef %0, ptr noundef nonnull @.str, ptr noundef nonnull @.str.3, ptr noundef nonnull @Mio_CommandPrintGenlib, i32 noundef 0) #8
  tail call void @Cmd_CommandAdd(ptr noundef %0, ptr noundef nonnull @.str, ptr noundef nonnull @.str.4, ptr noundef nonnull @Mio_CommandReadProfile, i32 noundef 0) #8
  tail call void @Cmd_CommandAdd(ptr noundef %0, ptr noundef nonnull @.str, ptr noundef nonnull @.str.5, ptr noundef nonnull @Mio_CommandWriteProfile, i32 noundef 0) #8
  tail call void @Cmd_CommandAdd(ptr noundef %0, ptr noundef nonnull @.str, ptr noundef nonnull @.str.6, ptr noundef nonnull @Mio_CommandPrintProfile, i32 noundef 0) #8
  tail call void @Cmd_CommandAdd(ptr noundef %0, ptr noundef nonnull @.str, ptr noundef nonnull @.str.7, ptr noundef nonnull @Mio_CommandReadGenlib, i32 noundef 0) #8
  tail call void @Cmd_CommandAdd(ptr noundef %0, ptr noundef nonnull @.str, ptr noundef nonnull @.str.8, ptr noundef nonnull @Mio_CommandWriteGenlib, i32 noundef 0) #8
  tail call void @Cmd_CommandAdd(ptr noundef %0, ptr noundef nonnull @.str, ptr noundef nonnull @.str.9, ptr noundef nonnull @Mio_CommandPrintGenlib, i32 noundef 0) #8
  ret void
}